; Function Attrs: mustprogress uwtable
define void @_ZNK6casadi8Sparsity9serializeERSo(ptr noundef nonnull align 8 dereferenceable(8) %0, ptr noundef nonnull align 8 dereferenceable(8) %1) local_unnamed_addr #3 align 2 personality ptr @__gxx_personality_v0 {
  %3 = alloca %"class.casadi::SerializingStream", align 8
  call void @_ZN6casadi17SerializingStreamC1ERSo(ptr noundef nonnull align 8 dereferenceable(73) %3, ptr noundef nonnull align 8 dereferenceable(8) %1)
  invoke void @_ZNK6casadi8Sparsity9serializeERNS_17SerializingStreamE(ptr noundef nonnull align 8 dereferenceable(8) %0, ptr noundef nonnull align 8 dereferenceable(73) %3)
          to label %4 unwind label %16

4:                                                ; preds = %2
  %5 = getelementptr inbounds i8, ptr %3, i64 16
  %6 = load ptr, ptr %5, align 8
  %.not5.i.i.i.i.i = icmp eq ptr %6, null
  br i1 %.not5.i.i.i.i.i, label %_ZNSt10_HashtableIPvSt4pairIKS0_xESaIS3_ENSt8__detail10_Select1stESt8equal_toIS0_ESt4hashIS0_ENS5_18_Mod_range_hashingENS5_20_Default_ranged_hashENS5_20_Prime_rehash_policyENS5_17_Hashtable_traitsILb0ELb0ELb1EEEE5clearEv.exit.i.i.i, label %.lr.ph.i.i.i.i.i

.lr.ph.i.i.i.i.i:                                 ; preds = %4, %.lr.ph.i.i.i.i.i
  %.06.i.i.i.i.i = phi ptr [ %7, %.lr.ph.i.i.i.i.i ], [ %6, %4 ]
  %7 = load ptr, ptr %.06.i.i.i.i.i, align 8
  call void @_ZdlPv(ptr noundef nonnull %.06.i.i.i.i.i) #26
  %.not.i.i.i.i.i = icmp eq ptr %7, null
  br i1 %.not.i.i.i.i.i, label %_ZNSt10_HashtableIPvSt4pairIKS0_xESaIS3_ENSt8__detail10_Select1stESt8equal_toIS0_ESt4hashIS0_ENS5_18_Mod_range_hashingENS5_20_Default_ranged_hashENS5_20_Prime_rehash_policyENS5_17_Hashtable_traitsILb0ELb0ELb1EEEE5clearEv.exit.i.i.i, label %.lr.ph.i.i.i.i.i, !llvm.loop !379

_ZNSt10_HashtableIPvSt4pairIKS0_xESaIS3_ENSt8__detail10_Select1stESt8equal_toIS0_ESt4hashIS0_ENS5_18_Mod_range_hashingENS5_20_Default_ranged_hashENS5_20_Prime_rehash_policyENS5_17_Hashtable_traitsILb0ELb0ELb1EEEE5clearEv.exit.i.i.i: ; preds = %.lr.ph.i.i.i.i.i, %4
  %8 = load ptr, ptr %3, align 8
  %9 = getelementptr inbounds i8, ptr %3, i64 8
  %10 = load i64, ptr %9, align 8
  %11 = shl i64 %10, 3
  call void @llvm.memset.p0.i64(ptr align 8 %8, i8 0, i64 %11, i1 false)
  call void @llvm.memset.p0.i64(ptr noundef nonnull align 8 dereferenceable(16) %5, i8 0, i64 16, i1 false)
  %12 = load ptr, ptr %3, align 8
  %13 = getelementptr inbounds i8, ptr %3, i64 48
  %14 = icmp eq ptr %13, %12
  br i1 %14, label %_ZN6casadi17SerializingStreamD2Ev.exit, label %15

15:                                               ; preds = %_ZNSt10_HashtableIPvSt4pairIKS0_xESaIS3_ENSt8__detail10_Select1stESt8equal_toIS0_ESt4hashIS0_ENS5_18_Mod_range_hashingENS5_20_Default_ranged_hashENS5_20_Prime_rehash_policyENS5_17_Hashtable_traitsILb0ELb0ELb1EEEE5clearEv.exit.i.i.i
  call void @_ZdlPv(ptr noundef %12) #26
  br label %_ZN6casadi17SerializingStreamD2Ev.exit

_ZN6casadi17SerializingStreamD2Ev.exit:           ; preds = %_ZNSt10_HashtableIPvSt4pairIKS0_xESaIS3_ENSt8__detail10_Select1stESt8equal_toIS0_ESt4hashIS0_ENS5_18_Mod_range_hashingENS5_20_Default_ranged_hashENS5_20_Prime_rehash_policyENS5_17_Hashtable_traitsILb0ELb0ELb1EEEE5clearEv.exit.i.i.i, %15
  ret void

16:                                               ; preds = %2
  %17 = landingpad { ptr, i32 }
          cleanup
  call void @_ZN6casadi17SerializingStreamD2Ev(ptr noundef nonnull align 8 dereferenceable(73) %3) #24
  resume { ptr, i32 } %17
}